target datalayout = "e-m:e-p270:32:32-p271:32:32-p272:64:64-i64:64-i128:128-f80:128-n8:16:32:64-S128"
target triple = "x86_64-pc-linux-gnu"

%struct._object = type { %union.anon, ptr }
%union.anon = type { i64 }
%struct.XxoObject = type { %struct._object, ptr, [10 x i8], i64 }

; Function Attrs: nounwind uwtable
define internal i32 @Xxo_getbuffer(ptr noundef %0, ptr noundef %1, i32 noundef %2) #0 {
  %4 = alloca ptr, align 8
  %5 = alloca ptr, align 8
  %6 = alloca i32, align 4
  %7 = alloca i32, align 4
  store ptr %0, ptr %4, align 8, !tbaa !8
  store ptr %1, ptr %5, align 8, !tbaa !8
  store i32 %2, ptr %6, align 4, !tbaa !11
  call void @llvm.lifetime.start.p0(i64 4, ptr %7) #6
  %8 = load ptr, ptr %5, align 8, !tbaa !8
  %9 = load ptr, ptr %4, align 8, !tbaa !8
  %10 = load ptr, ptr %4, align 8, !tbaa !8
  %11 = getelementptr inbounds nuw %struct.XxoObject, ptr %10, i32 0, i32 2
  %12 = getelementptr inbounds [10 x i8], ptr %11, i64 0, i64 0
  %13 = load i32, ptr %6, align 4, !tbaa !11
  %14 = call i32 @PyBuffer_FillInfo(ptr noundef %8, ptr noundef %9, ptr noundef %12, i64 noundef 10, i32 noundef 0, i32 noundef %13)
  store i32 %14, ptr %7, align 4, !tbaa !11
  %15 = load i32, ptr %7, align 4, !tbaa !11
  %16 = icmp eq i32 %15, 0
  br i1 %16, label %17, label %22

17:                                               ; preds = %3
  %18 = load ptr, ptr %4, align 8, !tbaa !8
  %19 = getelementptr inbounds nuw %struct.XxoObject, ptr %18, i32 0, i32 3
  %20 = load i64, ptr %19, align 8, !tbaa !22
  %21 = add i64 %20, 1
  store i64 %21, ptr %19, align 8, !tbaa !22
  br label %22

22:                                               ; preds = %17, %3
  %23 = load i32, ptr %7, align 4, !tbaa !11
  call void @llvm.lifetime.end.p0(i64 4, ptr %7) #6
  ret i32 %23
}