; Function Attrs: nounwind uwtable
define internal i32 @Xxo_getbuffer(ptr noundef %0, ptr noundef %1, i32 noundef %2) #0 {
  %4 = getelementptr inbounds nuw i8, ptr %0, i64 24
  %5 = tail call i32 @PyBuffer_FillInfo(ptr noundef %1, ptr noundef %0, ptr noundef nonnull %4, i64 noundef 10, i32 noundef 0, i32 noundef %2) #5
  %6 = icmp eq i32 %5, 0
  br i1 %6, label %7, label %11

7:                                                ; preds = %3
  %8 = getelementptr inbounds nuw i8, ptr %0, i64 40
  %9 = load i64, ptr %8, align 8, !tbaa !13
  %10 = add i64 %9, 1
  store i64 %10, ptr %8, align 8, !tbaa !13
  br label %11

11:                                               ; preds = %7, %3
  ret i32 %5
}